target datalayout = "e-m:e-p270:32:32-p271:32:32-p272:64:64-i64:64-i128:128-f80:128-n8:16:32:64-S128"
target triple = "x86_64-pc-linux-gnu"

@.str.29 = private unnamed_addr constant [27 x i8] c"../openssl/test/evp_test.c\00", align 1
@.str.68 = private unnamed_addr constant [5 x i8] c"NULL\00", align 1
@.str.69 = private unnamed_addr constant [39 x i8] c"*buf = OPENSSL_hexstr2buf(value, &len)\00", align 1
@.str.70 = private unnamed_addr constant [17 x i8] c"Can't convert %s\00", align 1

; Function Attrs: nounwind uwtable
define internal i32 @parse_bin(ptr noundef %0, ptr noundef %1, ptr noundef %2) #0 {
  %4 = alloca i32, align 4
  %5 = alloca ptr, align 8
  %6 = alloca ptr, align 8
  %7 = alloca ptr, align 8
  %8 = alloca i64, align 8
  %9 = alloca i32, align 4
  %10 = alloca i64, align 8
  store ptr %0, ptr %5, align 8, !tbaa !4
  store ptr %1, ptr %6, align 8, !tbaa !69
  store ptr %2, ptr %7, align 8, !tbaa !71
  call void @llvm.lifetime.start.p0(i64 8, ptr %8) #10
  %11 = load ptr, ptr %5, align 8, !tbaa !4
  %12 = call i32 @strcmp(ptr noundef %11, ptr noundef @.str.68) #11
  %13 = icmp eq i32 %12, 0
  br i1 %13, label %14, label %17

14:                                               ; preds = %3
  %15 = load ptr, ptr %6, align 8, !tbaa !69
  store ptr null, ptr %15, align 8, !tbaa !4
  %16 = load ptr, ptr %7, align 8, !tbaa !71
  store i64 0, ptr %16, align 8, !tbaa !13
  store i32 1, ptr %4, align 4
  store i32 1, ptr %9, align 4
  br label %78

17:                                               ; preds = %3
  %18 = load ptr, ptr %5, align 8, !tbaa !4
  %19 = load i8, ptr %18, align 1, !tbaa !46
  %20 = sext i8 %19 to i32
  %21 = icmp eq i32 %20, 0
  br i1 %21, label %22, label %33

22:                                               ; preds = %17
  %23 = call noalias ptr @CRYPTO_malloc(i64 noundef 1, ptr noundef @.str.29, i32 noundef 553)
  %24 = load ptr, ptr %6, align 8, !tbaa !69
  store ptr %23, ptr %24, align 8, !tbaa !4
  %25 = load ptr, ptr %6, align 8, !tbaa !69
  %26 = load ptr, ptr %25, align 8, !tbaa !4
  %27 = icmp eq ptr %26, null
  br i1 %27, label %28, label %29

28:                                               ; preds = %22
  store i32 0, ptr %4, align 4
  store i32 1, ptr %9, align 4
  br label %78

29:                                               ; preds = %22
  %30 = load ptr, ptr %6, align 8, !tbaa !69
  %31 = load ptr, ptr %30, align 8, !tbaa !4
  store i8 0, ptr %31, align 1, !tbaa !46
  %32 = load ptr, ptr %7, align 8, !tbaa !71
  store i64 0, ptr %32, align 8, !tbaa !13
  store i32 1, ptr %4, align 4
  store i32 1, ptr %9, align 4
  br label %78

33:                                               ; preds = %17
  %34 = load ptr, ptr %5, align 8, !tbaa !4
  %35 = getelementptr inbounds i8, ptr %34, i64 0
  %36 = load i8, ptr %35, align 1, !tbaa !46
  %37 = sext i8 %36 to i32
  %38 = icmp eq i32 %37, 34
  br i1 %38, label %39, label %67

39:                                               ; preds = %33
  call void @llvm.lifetime.start.p0(i64 8, ptr %10) #10
  %40 = load ptr, ptr %5, align 8, !tbaa !4
  %41 = getelementptr inbounds nuw i8, ptr %40, i32 1
  store ptr %41, ptr %5, align 8, !tbaa !4
  %42 = call i64 @strlen(ptr noundef %41) #11
  store i64 %42, ptr %10, align 8, !tbaa !13
  %43 = load i64, ptr %10, align 8, !tbaa !13
  %44 = icmp eq i64 %43, 0
  br i1 %44, label %53, label %45

45:                                               ; preds = %39
  %46 = load ptr, ptr %5, align 8, !tbaa !4
  %47 = load i64, ptr %10, align 8, !tbaa !13
  %48 = sub i64 %47, 1
  %49 = getelementptr inbounds nuw i8, ptr %46, i64 %48
  %50 = load i8, ptr %49, align 1, !tbaa !46
  %51 = sext i8 %50 to i32
  %52 = icmp ne i32 %51, 34
  br i1 %52, label %53, label %54

53:                                               ; preds = %45, %39
  store i32 0, ptr %4, align 4
  store i32 1, ptr %9, align 4
  br label %66

54:                                               ; preds = %45
  %55 = load i64, ptr %10, align 8, !tbaa !13
  %56 = add i64 %55, -1
  store i64 %56, ptr %10, align 8, !tbaa !13
  %57 = load ptr, ptr %5, align 8, !tbaa !4
  %58 = load i64, ptr %10, align 8, !tbaa !13
  %59 = load ptr, ptr %7, align 8, !tbaa !71
  %60 = call ptr @unescape(ptr noundef %57, i64 noundef %58, ptr noundef %59)
  %61 = load ptr, ptr %6, align 8, !tbaa !69
  store ptr %60, ptr %61, align 8, !tbaa !4
  %62 = load ptr, ptr %6, align 8, !tbaa !69
  %63 = load ptr, ptr %62, align 8, !tbaa !4
  %64 = icmp eq ptr %63, null
  %65 = select i1 %64, i32 0, i32 1
  store i32 %65, ptr %4, align 4
  store i32 1, ptr %9, align 4
  br label %66

66:                                               ; preds = %54, %53
  call void @llvm.lifetime.end.p0(i64 8, ptr %10) #10
  br label %78

67:                                               ; preds = %33
  %68 = load ptr, ptr %5, align 8, !tbaa !4
  %69 = call ptr @OPENSSL_hexstr2buf(ptr noundef %68, ptr noundef %8)
  %70 = load ptr, ptr %6, align 8, !tbaa !69
  store ptr %69, ptr %70, align 8, !tbaa !4
  %71 = call i32 @test_ptr(ptr noundef @.str.29, i32 noundef 573, ptr noundef @.str.69, ptr noundef %69)
  %72 = icmp ne i32 %71, 0
  br i1 %72, label %75, label %73

73:                                               ; preds = %67
  %74 = load ptr, ptr %5, align 8, !tbaa !4
  call void (ptr, i32, ptr, ...) @test_info(ptr noundef @.str.29, i32 noundef 574, ptr noundef @.str.70, ptr noundef %74)
  call void @test_openssl_errors()
  store i32 -1, ptr %4, align 4
  store i32 1, ptr %9, align 4
  br label %78

75:                                               ; preds = %67
  %76 = load i64, ptr %8, align 8, !tbaa !13
  %77 = load ptr, ptr %7, align 8, !tbaa !71
  store i64 %76, ptr %77, align 8, !tbaa !13
  store i32 1, ptr %4, align 4
  store i32 1, ptr %9, align 4
  br label %78

78:                                               ; preds = %75, %73, %66, %29, %28, %14
  call void @llvm.lifetime.end.p0(i64 8, ptr %8) #10
  %79 = load i32, ptr %4, align 4
  ret i32 %79
}