; Function Attrs: nounwind uwtable
define internal fastcc range(i32 -1, 2) i32 @parse_bin(ptr noundef %0, ptr noundef writeonly captures(none) %1, ptr noundef writeonly captures(none) %2) unnamed_addr #1 {
  %4 = alloca i64, align 8
  call void @llvm.lifetime.start.p0(i64 8, ptr nonnull %4) #10
  %5 = tail call i32 @strcmp(ptr noundef nonnull dereferenceable(1) %0, ptr noundef nonnull dereferenceable(5) @.str.68) #11
  %6 = icmp eq i32 %5, 0
  br i1 %6, label %7, label %8

7:                                                ; preds = %3
  store ptr null, ptr %1, align 8, !tbaa !10
  store i64 0, ptr %2, align 8, !tbaa !35
  br label %32

8:                                                ; preds = %3
  %9 = load i8, ptr %0, align 1, !tbaa !34
  switch i8 %9, label %26 [
    i8 0, label %10
    i8 34, label %14
  ]

10:                                               ; preds = %8
  %11 = tail call noalias ptr @CRYPTO_malloc(i64 noundef 1, ptr noundef nonnull @.str.29, i32 noundef 553) #10
  store ptr %11, ptr %1, align 8, !tbaa !10
  %12 = icmp eq ptr %11, null
  br i1 %12, label %32, label %13

13:                                               ; preds = %10
  store i8 0, ptr %11, align 1, !tbaa !34
  store i64 0, ptr %2, align 8, !tbaa !35
  br label %32

14:                                               ; preds = %8
  %15 = getelementptr inbounds nuw i8, ptr %0, i64 1
  %16 = tail call i64 @strlen(ptr noundef nonnull dereferenceable(1) %15) #11
  %17 = icmp eq i64 %16, 0
  br i1 %17, label %32, label %18

18:                                               ; preds = %14
  %19 = getelementptr i8, ptr %0, i64 %16
  %20 = load i8, ptr %19, align 1, !tbaa !34
  %.not26 = icmp eq i8 %20, 34
  br i1 %.not26, label %21, label %32

21:                                               ; preds = %18
  %22 = add i64 %16, -1
  %23 = tail call fastcc ptr @unescape(ptr noundef nonnull %15, i64 noundef %22, ptr noundef %2)
  store ptr %23, ptr %1, align 8, !tbaa !10
  %24 = icmp ne ptr %23, null
  %25 = zext i1 %24 to i32
  br label %32

26:                                               ; preds = %8
  %27 = call ptr @OPENSSL_hexstr2buf(ptr noundef nonnull %0, ptr noundef nonnull %4) #10
  store ptr %27, ptr %1, align 8, !tbaa !10
  %28 = call i32 @test_ptr(ptr noundef nonnull @.str.29, i32 noundef 573, ptr noundef nonnull @.str.69, ptr noundef %27) #10
  %.not = icmp eq i32 %28, 0
  br i1 %.not, label %29, label %30

29:                                               ; preds = %26
  call void (ptr, i32, ptr, ...) @test_info(ptr noundef nonnull @.str.29, i32 noundef 574, ptr noundef nonnull @.str.70, ptr noundef nonnull %0) #10
  call void @test_openssl_errors() #10
  br label %32

30:                                               ; preds = %26
  %31 = load i64, ptr %4, align 8, !tbaa !35
  store i64 %31, ptr %2, align 8, !tbaa !35
  br label %32

32:                                               ; preds = %21, %18, %14, %10, %30, %29, %13, %7
  %.0 = phi i32 [ 1, %7 ], [ 1, %13 ], [ 1, %30 ], [ -1, %29 ], [ 0, %10 ], [ %25, %21 ], [ 0, %18 ], [ 0, %14 ]
  call void @llvm.lifetime.end.p0(i64 8, ptr nonnull %4) #10
  ret i32 %.0
}